target datalayout = "e-m:e-p270:32:32-p271:32:32-p272:64:64-i64:64-i128:128-f80:128-n8:16:32:64-S128"
target triple = "x86_64-pc-linux-gnu"

%struct.AVChannelLayout = type { i32, i32, %union.anon.1, ptr }
%union.anon.1 = type { i64 }
%struct.AVFilterFormatsConfig = type { ptr, ptr, ptr, ptr, ptr }

@query_formats.sample_fmts = internal constant [2 x i32] [i32 3, i32 -1], align 4
@query_formats.pix_fmts = internal constant [5 x i32] [i32 0, i32 4, i32 5, i32 2, i32 -1], align 16
@query_formats.channel_layouts = internal constant [3 x %struct.AVChannelLayout] [%struct.AVChannelLayout { i32 1, i32 2, %union.anon.1 { i64 3 }, ptr null }, %struct.AVChannelLayout { i32 1, i32 2, %union.anon.1 { i64 1610612736 }, ptr null }, %struct.AVChannelLayout zeroinitializer], align 16

; Function Attrs: nounwind uwtable
define internal i32 @query_formats(ptr noundef %0, ptr noundef %1, ptr noundef %2) #1 {
  %4 = alloca i32, align 4
  %5 = alloca ptr, align 8
  %6 = alloca ptr, align 8
  %7 = alloca ptr, align 8
  %8 = alloca ptr, align 8
  %9 = alloca i32, align 4
  %10 = alloca i32, align 4
  store ptr %0, ptr %5, align 8, !tbaa !4
  store ptr %1, ptr %6, align 8, !tbaa !44
  store ptr %2, ptr %7, align 8, !tbaa !44
  call void @llvm.lifetime.start.p0(i64 8, ptr %8) #12
  store ptr null, ptr %8, align 8, !tbaa !46
  call void @llvm.lifetime.start.p0(i64 4, ptr %9) #12
  %11 = call ptr @ff_make_format_list(ptr noundef @query_formats.sample_fmts)
  store ptr %11, ptr %8, align 8, !tbaa !46
  %12 = load ptr, ptr %8, align 8, !tbaa !46
  %13 = load ptr, ptr %6, align 8, !tbaa !44
  %14 = getelementptr inbounds ptr, ptr %13, i64 0
  %15 = load ptr, ptr %14, align 8, !tbaa !48
  %16 = getelementptr inbounds nuw %struct.AVFilterFormatsConfig, ptr %15, i32 0, i32 0
  %17 = call i32 @ff_formats_ref(ptr noundef %12, ptr noundef %16)
  store i32 %17, ptr %9, align 4, !tbaa !50
  %18 = icmp slt i32 %17, 0
  br i1 %18, label %19, label %21

19:                                               ; preds = %3
  %20 = load i32, ptr %9, align 4, !tbaa !50
  store i32 %20, ptr %4, align 4
  store i32 1, ptr %10, align 4
  br label %42

21:                                               ; preds = %3
  %22 = load ptr, ptr %5, align 8, !tbaa !4
  %23 = load ptr, ptr %6, align 8, !tbaa !44
  %24 = load ptr, ptr %7, align 8, !tbaa !44
  %25 = call i32 @ff_set_common_channel_layouts_from_list2(ptr noundef %22, ptr noundef %23, ptr noundef %24, ptr noundef @query_formats.channel_layouts)
  store i32 %25, ptr %9, align 4, !tbaa !50
  %26 = load i32, ptr %9, align 4, !tbaa !50
  %27 = icmp slt i32 %26, 0
  br i1 %27, label %28, label %30

28:                                               ; preds = %21
  %29 = load i32, ptr %9, align 4, !tbaa !50
  store i32 %29, ptr %4, align 4
  store i32 1, ptr %10, align 4
  br label %42

30:                                               ; preds = %21
  %31 = call ptr @ff_make_format_list(ptr noundef @query_formats.pix_fmts)
  store ptr %31, ptr %8, align 8, !tbaa !46
  %32 = load ptr, ptr %8, align 8, !tbaa !46
  %33 = load ptr, ptr %7, align 8, !tbaa !44
  %34 = getelementptr inbounds ptr, ptr %33, i64 0
  %35 = load ptr, ptr %34, align 8, !tbaa !48
  %36 = getelementptr inbounds nuw %struct.AVFilterFormatsConfig, ptr %35, i32 0, i32 0
  %37 = call i32 @ff_formats_ref(ptr noundef %32, ptr noundef %36)
  store i32 %37, ptr %9, align 4, !tbaa !50
  %38 = icmp slt i32 %37, 0
  br i1 %38, label %39, label %41

39:                                               ; preds = %30
  %40 = load i32, ptr %9, align 4, !tbaa !50
  store i32 %40, ptr %4, align 4
  store i32 1, ptr %10, align 4
  br label %42

41:                                               ; preds = %30
  store i32 0, ptr %4, align 4
  store i32 1, ptr %10, align 4
  br label %42

42:                                               ; preds = %41, %39, %28, %19
  call void @llvm.lifetime.end.p0(i64 4, ptr %9) #12
  call void @llvm.lifetime.end.p0(i64 8, ptr %8) #12
  %43 = load i32, ptr %4, align 4
  ret i32 %43
}